target datalayout = "e-m:e-p270:32:32-p271:32:32-p272:64:64-i64:64-i128:128-f80:128-n8:16:32:64-S128"
target triple = "x86_64-pc-linux-gnu"

%struct.If_Man_t_ = type { ptr, ptr, ptr, ptr, ptr, ptr, ptr, ptr, [5 x i32], i32, float, float, float, float, i32, float, i32, i32, [4 x ptr], ptr, i32, i32, i32, ptr, [3 x [32 x i32]], i32, i32, i32, ptr, ptr, ptr, ptr, ptr, ptr, ptr, i32, i32, i32, [16 x i32], i32, i32, i32, i32, ptr, ptr, ptr, ptr, ptr, i32, i32, [32 x i32], [32 x i32], i32, i32, i32, i32, ptr, [16 x ptr], [16 x ptr], [16 x ptr], [16 x ptr], [16 x ptr], [16 x ptr], [16 x ptr], ptr, ptr, ptr, ptr, [32 x i8], i32, i32, i32, [6 x i64], [2 x i32], [2 x i32], ptr, [15 x i32], ptr, ptr, ptr, [16 x i32], ptr, ptr, ptr, ptr, [2 x i32], [2 x i32], [2 x ptr], ptr }
%struct.If_Cut_t_ = type <{ float, float, float, float, i32, i32, i32, i48, [0 x i32] }>
%struct.If_Obj_t_ = type { i32, i32, i32, i32, i32, i32, ptr, ptr, ptr, float, float, float, %union.anon, ptr, %struct.If_Cut_t_ }
%union.anon = type { ptr }
%struct.Vec_Ptr_t_ = type { i32, i32, ptr }

; Function Attrs: nounwind uwtable
define internal ptr @Vec_PtrEntry(ptr noundef %0, i32 noundef %1) #0 {
  %3 = alloca ptr, align 8
  %4 = alloca i32, align 4
  store ptr %0, ptr %3, align 8
  store i32 %1, ptr %4, align 4
  %5 = load ptr, ptr %3, align 8
  %6 = getelementptr inbounds %struct.Vec_Ptr_t_, ptr %5, i32 0, i32 2
  %7 = load ptr, ptr %6, align 8
  %8 = load i32, ptr %4, align 4
  %9 = sext i32 %8 to i64
  %10 = getelementptr inbounds ptr, ptr %7, i64 %9
  %11 = load ptr, ptr %10, align 8
  ret ptr %11
}

; Function Attrs: nounwind uwtable
define internal ptr @If_ManObj(ptr noundef %0, i32 noundef %1) #0 {
  %3 = alloca ptr, align 8
  %4 = alloca i32, align 4
  store ptr %0, ptr %3, align 8
  store i32 %1, ptr %4, align 4
  %5 = load ptr, ptr %3, align 8
  %6 = getelementptr inbounds %struct.If_Man_t_, ptr %5, i32 0, i32 5
  %7 = load ptr, ptr %6, align 8
  %8 = load i32, ptr %4, align 4
  %9 = call ptr @Vec_PtrEntry(ptr noundef %7, i32 noundef %8)
  ret ptr %9
}

; Function Attrs: nounwind uwtable
define internal i32 @Abc_MaxInt(i32 noundef %0, i32 noundef %1) #0 {
  %3 = alloca i32, align 4
  %4 = alloca i32, align 4
  store i32 %0, ptr %3, align 4
  store i32 %1, ptr %4, align 4
  %5 = load i32, ptr %3, align 4
  %6 = load i32, ptr %4, align 4
  %7 = icmp sgt i32 %5, %6
  br i1 %7, label %8, label %10

8:                                                ; preds = %2
  %9 = load i32, ptr %3, align 4
  br label %12

10:                                               ; preds = %2
  %11 = load i32, ptr %4, align 4
  br label %12

12:                                               ; preds = %10, %8
  %13 = phi i32 [ %9, %8 ], [ %11, %10 ]
  ret i32 %13
}

; Function Attrs: nounwind uwtable
define internal i32 @If_CutLeaveNum(ptr noundef %0) #0 {
  %2 = alloca ptr, align 8
  store ptr %0, ptr %2, align 8
  %3 = load ptr, ptr %2, align 8
  %4 = getelementptr inbounds %struct.If_Cut_t_, ptr %3, i32 0, i32 7
  %5 = load i64, ptr %4, align 4
  %6 = lshr i64 %5, 24
  %7 = and i64 %6, 255
  %8 = trunc i64 %7 to i32
  ret i32 %8
}

; Function Attrs: nounwind uwtable
define internal ptr @If_ObjCutBest(ptr noundef %0) #0 {
  %2 = alloca ptr, align 8
  store ptr %0, ptr %2, align 8
  %3 = load ptr, ptr %2, align 8
  %4 = getelementptr inbounds %struct.If_Obj_t_, ptr %3, i32 0, i32 14
  ret ptr %4
}

; Function Attrs: nounwind uwtable
define internal ptr @If_CutLeaf(ptr noundef %0, ptr noundef %1, i32 noundef %2) #0 {
  %4 = alloca ptr, align 8
  %5 = alloca ptr, align 8
  %6 = alloca i32, align 4
  store ptr %0, ptr %4, align 8
  store ptr %1, ptr %5, align 8
  store i32 %2, ptr %6, align 4
  %7 = load ptr, ptr %4, align 8
  %8 = load ptr, ptr %5, align 8
  %9 = getelementptr inbounds %struct.If_Cut_t_, ptr %8, i32 0, i32 8
  %10 = load i32, ptr %6, align 4
  %11 = sext i32 %10 to i64
  %12 = getelementptr inbounds [0 x i32], ptr %9, i64 0, i64 %11
  %13 = load i32, ptr %12, align 4
  %14 = call ptr @If_ManObj(ptr noundef %7, i32 noundef %13)
  ret ptr %14
}

; Function Attrs: nounwind uwtable
define i32 @If_LutDecReEval(ptr noundef %0, ptr noundef %1) #0 {
  %3 = alloca i32, align 4
  %4 = alloca ptr, align 8
  %5 = alloca ptr, align 8
  %6 = alloca i32, align 4
  %7 = alloca i32, align 4
  %8 = alloca i32, align 4
  store ptr %0, ptr %4, align 8
  store ptr %1, ptr %5, align 8
  %9 = load ptr, ptr %5, align 8
  %10 = getelementptr inbounds %struct.If_Cut_t_, ptr %9, i32 0, i32 7
  %11 = load i64, ptr %10, align 4
  %12 = lshr i64 %11, 24
  %13 = and i64 %12, 255
  %14 = trunc i64 %13 to i32
  %15 = icmp eq i32 %14, 0
  br i1 %15, label %16, label %17

16:                                               ; preds = %2
  store i32 0, ptr %3, align 4
  br label %69

17:                                               ; preds = %2
  %18 = load ptr, ptr %5, align 8
  %19 = getelementptr inbounds %struct.If_Cut_t_, ptr %18, i32 0, i32 7
  %20 = load i64, ptr %19, align 4
  %21 = lshr i64 %20, 24
  %22 = and i64 %21, 255
  %23 = trunc i64 %22 to i32
  %24 = icmp eq i32 %23, 1
  br i1 %24, label %25, label %33

25:                                               ; preds = %17
  %26 = load ptr, ptr %4, align 8
  %27 = load ptr, ptr %5, align 8
  %28 = call ptr @If_CutLeaf(ptr noundef %26, ptr noundef %27, i32 noundef 0)
  %29 = call ptr @If_ObjCutBest(ptr noundef %28)
  %30 = getelementptr inbounds %struct.If_Cut_t_, ptr %29, i32 0, i32 3
  %31 = load float, ptr %30, align 4
  %32 = fptosi float %31 to i32
  store i32 %32, ptr %3, align 4
  br label %69

33:                                               ; preds = %17
  store i32 -1, ptr %8, align 4
  store i32 0, ptr %6, align 4
  br label %34

34:                                               ; preds = %64, %33
  %35 = load i32, ptr %6, align 4
  %36 = load ptr, ptr %5, align 8
  %37 = call i32 @If_CutLeaveNum(ptr noundef %36)
  %38 = icmp slt i32 %35, %37
  br i1 %38, label %39, label %67

39:                                               ; preds = %34
  %40 = load ptr, ptr %4, align 8
  %41 = load ptr, ptr %5, align 8
  %42 = load i32, ptr %6, align 4
  %43 = call ptr @If_CutLeaf(ptr noundef %40, ptr noundef %41, i32 noundef %42)
  %44 = call ptr @If_ObjCutBest(ptr noundef %43)
  %45 = getelementptr inbounds %struct.If_Cut_t_, ptr %44, i32 0, i32 3
  %46 = load float, ptr %45, align 4
  %47 = fptosi float %46 to i32
  store i32 %47, ptr %7, align 4
  %48 = load ptr, ptr %5, align 8
  %49 = getelementptr inbounds %struct.If_Cut_t_, ptr %48, i32 0, i32 7
  %50 = load i64, ptr %49, align 4
  %51 = lshr i64 %50, 32
  %52 = and i64 %51, 65535
  %53 = trunc i64 %52 to i32
  %54 = load i32, ptr %6, align 4
  %55 = ashr i32 %53, %54
  %56 = and i32 %55, 1
  %57 = icmp eq i32 %56, 0
  %58 = select i1 %57, i32 2, i32 1
  %59 = load i32, ptr %7, align 4
  %60 = add nsw i32 %59, %58
  store i32 %60, ptr %7, align 4
  %61 = load i32, ptr %7, align 4
  %62 = load i32, ptr %8, align 4
  %63 = call i32 @Abc_MaxInt(i32 noundef %61, i32 noundef %62)
  store i32 %63, ptr %8, align 4
  br label %64

64:                                               ; preds = %39
  %65 = load i32, ptr %6, align 4
  %66 = add nsw i32 %65, 1
  store i32 %66, ptr %6, align 4
  br label %34, !llvm.loop !38

67:                                               ; preds = %34
  %68 = load i32, ptr %8, align 4
  store i32 %68, ptr %3, align 4
  br label %69

69:                                               ; preds = %67, %25, %16
  %70 = load i32, ptr %3, align 4
  ret i32 %70
}