; Function Attrs: nofree norecurse nosync nounwind memory(read, inaccessiblemem: none) uwtable
define i32 @If_LutDecReEval(ptr noundef readonly captures(none) %0, ptr noundef readonly captures(none) %1) local_unnamed_addr #4 {
  %3 = getelementptr inbounds nuw i8, ptr %1, i64 28
  %4 = load i64, ptr %3, align 4
  %5 = trunc i64 %4 to i32
  %6 = icmp ult i32 %5, 16777216
  br i1 %6, label %.loopexit, label %7

7:                                                ; preds = %2
  %.mask = and i32 %5, -16777216
  %8 = icmp eq i32 %.mask, 16777216
  br i1 %8, label %16, label %.lr.ph

.lr.ph:                                           ; preds = %7
  %9 = lshr i64 %4, 24
  %10 = getelementptr i8, ptr %0, i64 40
  %.val = load ptr, ptr %10, align 8
  %11 = getelementptr i8, ptr %.val, i64 8
  %.val.val = load ptr, ptr %11, align 8
  %12 = getelementptr inbounds nuw i8, ptr %1, i64 36
  %13 = lshr i64 %4, 32
  %14 = trunc nuw i64 %13 to i32
  %15 = and i32 %14, 65535
  %wide.trip.count = and i64 %9, 255
  br label %27

16:                                               ; preds = %7
  %17 = getelementptr i8, ptr %0, i64 40
  %.val19 = load ptr, ptr %17, align 8
  %18 = getelementptr i8, ptr %.val19, i64 8
  %.val19.val = load ptr, ptr %18, align 8
  %19 = getelementptr inbounds nuw i8, ptr %1, i64 36
  %20 = load i32, ptr %19, align 4
  %21 = sext i32 %20 to i64
  %22 = getelementptr inbounds ptr, ptr %.val19.val, i64 %21
  %23 = load ptr, ptr %22, align 8
  %24 = getelementptr inbounds nuw i8, ptr %23, i64 92
  %25 = load float, ptr %24, align 4
  %26 = fptosi float %25 to i32
  br label %.loopexit

27:                                               ; preds = %.lr.ph, %27
  %indvars.iv = phi i64 [ 0, %.lr.ph ], [ %indvars.iv.next, %27 ]
  %.022 = phi i32 [ -1, %.lr.ph ], [ %42, %27 ]
  %28 = getelementptr inbounds nuw [0 x i32], ptr %12, i64 0, i64 %indvars.iv
  %29 = load i32, ptr %28, align 4
  %30 = sext i32 %29 to i64
  %31 = getelementptr inbounds ptr, ptr %.val.val, i64 %30
  %32 = load ptr, ptr %31, align 8
  %33 = getelementptr inbounds nuw i8, ptr %32, i64 92
  %34 = load float, ptr %33, align 4
  %35 = fptosi float %34 to i32
  %36 = trunc nuw nsw i64 %indvars.iv to i32
  %37 = shl nuw i32 1, %36
  %38 = and i32 %15, %37
  %39 = icmp eq i32 %38, 0
  %40 = select i1 %39, i32 2, i32 1
  %41 = add nsw i32 %40, %35
  %42 = tail call noundef i32 @llvm.smax.i32(i32 %41, i32 %.022)
  %indvars.iv.next = add nuw nsw i64 %indvars.iv, 1
  %exitcond.not = icmp eq i64 %indvars.iv.next, %wide.trip.count
  br i1 %exitcond.not, label %.loopexit, label %27, !llvm.loop !31

.loopexit:                                        ; preds = %27, %2, %16
  %.016 = phi i32 [ %26, %16 ], [ 0, %2 ], [ %42, %27 ]
  ret i32 %.016
}